; ModuleID = '14/1057.c'
source_filename = "14/1057.c"
target datalayout = "e-m:e-p270:32:32-p271:32:32-p272:64:64-i64:64-f80:128-n8:16:32:64-S128"
target triple = "x86_64-pc-linux-gnu"

%struct.student = type { i32, i32, i32, i32, %struct.student* }

@.str = private unnamed_addr constant [9 x i8] c"%d %d %d\00", align 1
@.str.1 = private unnamed_addr constant [7 x i8] c"%d %d\0A\00", align 1
@.str.2 = private unnamed_addr constant [3 x i8] c"%d\00", align 1
@n = common dso_local global i32 0, align 4

; Function Attrs: noinline nounwind uwtable
define dso_local %struct.student* @creat(i32 %0) #0 {
  %2 = alloca %struct.student*, align 8
  %3 = alloca i32, align 4
  %4 = alloca %struct.student*, align 8
  %5 = alloca %struct.student*, align 8
  %6 = alloca %struct.student*, align 8
  %7 = alloca i32, align 4
  store i32 %0, i32* %3, align 4
  %8 = load i32, i32* %3, align 4
  %9 = icmp eq i32 %8, 0
  br i1 %9, label %10, label %12

10:                                               ; preds = %1
  store %struct.student* null, %struct.student** %4, align 8
  %11 = load %struct.student*, %struct.student** %4, align 8
  store %struct.student* %11, %struct.student** %2, align 8
  br label %51

12:                                               ; preds = %1
  %13 = call noalias i8* @malloc(i64 100) #3
  %14 = bitcast i8* %13 to %struct.student*
  store %struct.student* %14, %struct.student** %5, align 8
  %15 = load %struct.student*, %struct.student** %5, align 8
  %16 = getelementptr inbounds %struct.student, %struct.student* %15, i32 0, i32 0
  %17 = load %struct.student*, %struct.student** %5, align 8
  %18 = getelementptr inbounds %struct.student, %struct.student* %17, i32 0, i32 1
  %19 = load %struct.student*, %struct.student** %5, align 8
  %20 = getelementptr inbounds %struct.student, %struct.student* %19, i32 0, i32 2
  %21 = call i32 (i8*, ...) @__isoc99_scanf(i8* getelementptr inbounds ([9 x i8], [9 x i8]* @.str, i64 0, i64 0), i32* %16, i32* %18, i32* %20)
  %22 = load %struct.student*, %struct.student** %5, align 8
  %23 = getelementptr inbounds %struct.student, %struct.student* %22, i32 0, i32 4
  store %struct.student* null, %struct.student** %23, align 8
  %24 = load %struct.student*, %struct.student** %5, align 8
  store %struct.student* %24, %struct.student** %4, align 8
  %25 = load %struct.student*, %struct.student** %5, align 8
  store %struct.student* %25, %struct.student** %6, align 8
  store i32 1, i32* %7, align 4
  br label %26

26:                                               ; preds = %46, %12
  %27 = load i32, i32* %7, align 4
  %28 = load i32, i32* %3, align 4
  %29 = icmp slt i32 %27, %28
  br i1 %29, label %30, label %49

30:                                               ; preds = %26
  %31 = call noalias i8* @malloc(i64 100) #3
  %32 = bitcast i8* %31 to %struct.student*
  store %struct.student* %32, %struct.student** %5, align 8
  %33 = load %struct.student*, %struct.student** %5, align 8
  %34 = getelementptr inbounds %struct.student, %struct.student* %33, i32 0, i32 0
  %35 = load %struct.student*, %struct.student** %5, align 8
  %36 = getelementptr inbounds %struct.student, %struct.student* %35, i32 0, i32 1
  %37 = load %struct.student*, %struct.student** %5, align 8
  %38 = getelementptr inbounds %struct.student, %struct.student* %37, i32 0, i32 2
  %39 = call i32 (i8*, ...) @__isoc99_scanf(i8* getelementptr inbounds ([9 x i8], [9 x i8]* @.str, i64 0, i64 0), i32* %34, i32* %36, i32* %38)
  %40 = load %struct.student*, %struct.student** %5, align 8
  %41 = getelementptr inbounds %struct.student, %struct.student* %40, i32 0, i32 4
  store %struct.student* null, %struct.student** %41, align 8
  %42 = load %struct.student*, %struct.student** %5, align 8
  %43 = load %struct.student*, %struct.student** %6, align 8
  %44 = getelementptr inbounds %struct.student, %struct.student* %43, i32 0, i32 4
  store %struct.student* %42, %struct.student** %44, align 8
  %45 = load %struct.student*, %struct.student** %5, align 8
  store %struct.student* %45, %struct.student** %6, align 8
  br label %46

46:                                               ; preds = %30
  %47 = load i32, i32* %7, align 4
  %48 = add nsw i32 %47, 1
  store i32 %48, i32* %7, align 4
  br label %26

49:                                               ; preds = %26
  %50 = load %struct.student*, %struct.student** %4, align 8
  store %struct.student* %50, %struct.student** %2, align 8
  br label %51

51:                                               ; preds = %49, %10
  %52 = load %struct.student*, %struct.student** %2, align 8
  ret %struct.student* %52
}

; Function Attrs: nounwind
declare dso_local noalias i8* @malloc(i64) #1

declare dso_local i32 @__isoc99_scanf(i8*, ...) #2

; Function Attrs: noinline nounwind uwtable
define dso_local void @top3(%struct.student* %0) #0 {
  %2 = alloca %struct.student*, align 8
  %3 = alloca %struct.student*, align 8
  %4 = alloca %struct.student*, align 8
  %5 = alloca i32, align 4
  store %struct.student* %0, %struct.student** %2, align 8
  store i32 0, i32* %5, align 4
  %6 = load %struct.student*, %struct.student** %2, align 8
  store %struct.student* %6, %struct.student** %3, align 8
  br label %7

7:                                                ; preds = %31, %1
  %8 = load %struct.student*, %struct.student** %3, align 8
  %9 = getelementptr inbounds %struct.student, %struct.student* %8, i32 0, i32 1
  %10 = load i32, i32* %9, align 4
  %11 = load %struct.student*, %struct.student** %3, align 8
  %12 = getelementptr inbounds %struct.student, %struct.student* %11, i32 0, i32 2
  %13 = load i32, i32* %12, align 8
  %14 = add nsw i32 %10, %13
  %15 = load %struct.student*, %struct.student** %3, align 8
  %16 = getelementptr inbounds %struct.student, %struct.student* %15, i32 0, i32 3
  store i32 %14, i32* %16, align 4
  %17 = load %struct.student*, %struct.student** %3, align 8
  %18 = getelementptr inbounds %struct.student, %struct.student* %17, i32 0, i32 3
  %19 = load i32, i32* %18, align 4
  %20 = load i32, i32* %5, align 4
  %21 = icmp sgt i32 %19, %20
  br i1 %21, label %22, label %27

22:                                               ; preds = %7
  %23 = load %struct.student*, %struct.student** %3, align 8
  %24 = getelementptr inbounds %struct.student, %struct.student* %23, i32 0, i32 3
  %25 = load i32, i32* %24, align 4
  store i32 %25, i32* %5, align 4
  %26 = load %struct.student*, %struct.student** %3, align 8
  store %struct.student* %26, %struct.student** %4, align 8
  br label %27

27:                                               ; preds = %22, %7
  %28 = load %struct.student*, %struct.student** %3, align 8
  %29 = getelementptr inbounds %struct.student, %struct.student* %28, i32 0, i32 4
  %30 = load %struct.student*, %struct.student** %29, align 8
  store %struct.student* %30, %struct.student** %3, align 8
  br label %31

31:                                               ; preds = %27
  %32 = load %struct.student*, %struct.student** %3, align 8
  %33 = icmp ne %struct.student* %32, null
  br i1 %33, label %7, label %34

34:                                               ; preds = %31
  %35 = load %struct.student*, %struct.student** %4, align 8
  %36 = getelementptr inbounds %struct.student, %struct.student* %35, i32 0, i32 0
  %37 = load i32, i32* %36, align 8
  %38 = load %struct.student*, %struct.student** %4, align 8
  %39 = getelementptr inbounds %struct.student, %struct.student* %38, i32 0, i32 3
  %40 = load i32, i32* %39, align 4
  %41 = call i32 (i8*, ...) @printf(i8* getelementptr inbounds ([7 x i8], [7 x i8]* @.str.1, i64 0, i64 0), i32 %37, i32 %40)
  %42 = load %struct.student*, %struct.student** %4, align 8
  %43 = getelementptr inbounds %struct.student, %struct.student* %42, i32 0, i32 3
  store i32 0, i32* %43, align 4
  %44 = load %struct.student*, %struct.student** %2, align 8
  store %struct.student* %44, %struct.student** %3, align 8
  store i32 0, i32* %5, align 4
  br label %45

45:                                               ; preds = %60, %34
  %46 = load %struct.student*, %struct.student** %3, align 8
  %47 = getelementptr inbounds %struct.student, %struct.student* %46, i32 0, i32 3
  %48 = load i32, i32* %47, align 4
  %49 = load i32, i32* %5, align 4
  %50 = icmp sgt i32 %48, %49
  br i1 %50, label %51, label %56

51:                                               ; preds = %45
  %52 = load %struct.student*, %struct.student** %3, align 8
  %53 = getelementptr inbounds %struct.student, %struct.student* %52, i32 0, i32 3
  %54 = load i32, i32* %53, align 4
  store i32 %54, i32* %5, align 4
  %55 = load %struct.student*, %struct.student** %3, align 8
  store %struct.student* %55, %struct.student** %4, align 8
  br label %56

56:                                               ; preds = %51, %45
  %57 = load %struct.student*, %struct.student** %3, align 8
  %58 = getelementptr inbounds %struct.student, %struct.student* %57, i32 0, i32 4
  %59 = load %struct.student*, %struct.student** %58, align 8
  store %struct.student* %59, %struct.student** %3, align 8
  br label %60

60:                                               ; preds = %56
  %61 = load %struct.student*, %struct.student** %3, align 8
  %62 = icmp ne %struct.student* %61, null
  br i1 %62, label %45, label %63

63:                                               ; preds = %60
  %64 = load %struct.student*, %struct.student** %4, align 8
  %65 = getelementptr inbounds %struct.student, %struct.student* %64, i32 0, i32 0
  %66 = load i32, i32* %65, align 8
  %67 = load %struct.student*, %struct.student** %4, align 8
  %68 = getelementptr inbounds %struct.student, %struct.student* %67, i32 0, i32 3
  %69 = load i32, i32* %68, align 4
  %70 = call i32 (i8*, ...) @printf(i8* getelementptr inbounds ([7 x i8], [7 x i8]* @.str.1, i64 0, i64 0), i32 %66, i32 %69)
  %71 = load %struct.student*, %struct.student** %4, align 8
  %72 = getelementptr inbounds %struct.student, %struct.student* %71, i32 0, i32 3
  store i32 0, i32* %72, align 4
  %73 = load %struct.student*, %struct.student** %2, align 8
  store %struct.student* %73, %struct.student** %3, align 8
  store i32 0, i32* %5, align 4
  br label %74

74:                                               ; preds = %89, %63
  %75 = load %struct.student*, %struct.student** %3, align 8
  %76 = getelementptr inbounds %struct.student, %struct.student* %75, i32 0, i32 3
  %77 = load i32, i32* %76, align 4
  %78 = load i32, i32* %5, align 4
  %79 = icmp sgt i32 %77, %78
  br i1 %79, label %80, label %85

80:                                               ; preds = %74
  %81 = load %struct.student*, %struct.student** %3, align 8
  %82 = getelementptr inbounds %struct.student, %struct.student* %81, i32 0, i32 3
  %83 = load i32, i32* %82, align 4
  store i32 %83, i32* %5, align 4
  %84 = load %struct.student*, %struct.student** %3, align 8
  store %struct.student* %84, %struct.student** %4, align 8
  br label %85

85:                                               ; preds = %80, %74
  %86 = load %struct.student*, %struct.student** %3, align 8
  %87 = getelementptr inbounds %struct.student, %struct.student* %86, i32 0, i32 4
  %88 = load %struct.student*, %struct.student** %87, align 8
  store %struct.student* %88, %struct.student** %3, align 8
  br label %89

89:                                               ; preds = %85
  %90 = load %struct.student*, %struct.student** %3, align 8
  %91 = icmp ne %struct.student* %90, null
  br i1 %91, label %74, label %92

92:                                               ; preds = %89
  %93 = load %struct.student*, %struct.student** %4, align 8
  %94 = getelementptr inbounds %struct.student, %struct.student* %93, i32 0, i32 0
  %95 = load i32, i32* %94, align 8
  %96 = load %struct.student*, %struct.student** %4, align 8
  %97 = getelementptr inbounds %struct.student, %struct.student* %96, i32 0, i32 3
  %98 = load i32, i32* %97, align 4
  %99 = call i32 (i8*, ...) @printf(i8* getelementptr inbounds ([7 x i8], [7 x i8]* @.str.1, i64 0, i64 0), i32 %95, i32 %98)
  %100 = load %struct.student*, %struct.student** %4, align 8
  %101 = getelementptr inbounds %struct.student, %struct.student* %100, i32 0, i32 3
  store i32 0, i32* %101, align 4
  store i32 0, i32* %5, align 4
  ret void
}

declare dso_local i32 @printf(i8*, ...) #2

; Function Attrs: noinline nounwind uwtable
define dso_local void @main() #0 {
  %1 = alloca %struct.student*, align 8
  %2 = call i32 (i8*, ...) @__isoc99_scanf(i8* getelementptr inbounds ([3 x i8], [3 x i8]* @.str.2, i64 0, i64 0), i32* @n)
  %3 = load i32, i32* @n, align 4
  %4 = call %struct.student* @creat(i32 %3)
  store %struct.student* %4, %struct.student** %1, align 8
  %5 = load %struct.student*, %struct.student** %1, align 8
  call void @top3(%struct.student* %5)
  ret void
}


!llvm.module.flags = !{!0}
!llvm.ident = !{!1}

!0 = !{i32 1, !"wchar_size", i32 4}
!1 = !{!"clang version 10.0.0-4ubuntu1 "}
